
firmware.elf:     file format elf64-littleriscv


Disassembly of section .text:

0000000080000000 <_start>:
    80000000:	00000413          	li	s0,0
    80000004:	00020117          	auipc	sp,0x20
    80000008:	ffc10113          	addi	sp,sp,-4 # 80020000 <__stack_top>
    8000000c:	184000ef          	jal	80000190 <main>
    80000010:	ffe00513          	li	a0,-2
    80000014:	00100073          	ebreak

0000000080000018 <trap>:
    80000018:	ee810113          	addi	sp,sp,-280
    8000001c:	00113423          	sd	ra,8(sp)
    80000020:	00313c23          	sd	gp,24(sp)
    80000024:	02413023          	sd	tp,32(sp)
    80000028:	02513423          	sd	t0,40(sp)
    8000002c:	02613823          	sd	t1,48(sp)
    80000030:	02713c23          	sd	t2,56(sp)
    80000034:	04813023          	sd	s0,64(sp)
    80000038:	04913423          	sd	s1,72(sp)
    8000003c:	04a13823          	sd	a0,80(sp)
    80000040:	04b13c23          	sd	a1,88(sp)
    80000044:	06c13023          	sd	a2,96(sp)
    80000048:	06d13423          	sd	a3,104(sp)
    8000004c:	06e13823          	sd	a4,112(sp)
    80000050:	06f13c23          	sd	a5,120(sp)
    80000054:	09013023          	sd	a6,128(sp)
    80000058:	09113423          	sd	a7,136(sp)
    8000005c:	09213823          	sd	s2,144(sp)
    80000060:	09313c23          	sd	s3,152(sp)
    80000064:	0b413023          	sd	s4,160(sp)
    80000068:	0b513423          	sd	s5,168(sp)
    8000006c:	0b613823          	sd	s6,176(sp)
    80000070:	0b713c23          	sd	s7,184(sp)
    80000074:	0d813023          	sd	s8,192(sp)
    80000078:	0d913423          	sd	s9,200(sp)
    8000007c:	0da13823          	sd	s10,208(sp)
    80000080:	0db13c23          	sd	s11,216(sp)
    80000084:	0fc13023          	sd	t3,224(sp)
    80000088:	0fd13423          	sd	t4,232(sp)
    8000008c:	0fe13823          	sd	t5,240(sp)
    80000090:	0ff13c23          	sd	t6,248(sp)
    80000094:	342022f3          	csrr	t0,mcause
    80000098:	03f2d313          	srli	t1,t0,0x3f
    8000009c:	02030463          	beqz	t1,800000c4 <.no_timer>
    800000a0:	00700393          	li	t2,7
    800000a4:	0ff2f293          	zext.b	t0,t0
    800000a8:	00729e63          	bne	t0,t2,800000c4 <.no_timer>
    800000ac:	341022f3          	csrr	t0,mepc
    800000b0:	00428293          	addi	t0,t0,4
    800000b4:	34129073          	csrw	mepc,t0
    800000b8:	090000ef          	jal	80000148 <__cust_trap_handler>
    800000bc:	08000393          	li	t2,128
    800000c0:	3043b073          	csrc	mie,t2

00000000800000c4 <.no_timer>:
    800000c4:	00813083          	ld	ra,8(sp)
    800000c8:	01813183          	ld	gp,24(sp)
    800000cc:	02013203          	ld	tp,32(sp)
    800000d0:	02813283          	ld	t0,40(sp)
    800000d4:	03013303          	ld	t1,48(sp)
    800000d8:	03813383          	ld	t2,56(sp)
    800000dc:	04013403          	ld	s0,64(sp)
    800000e0:	04813483          	ld	s1,72(sp)
    800000e4:	05013503          	ld	a0,80(sp)
    800000e8:	05813583          	ld	a1,88(sp)
    800000ec:	06013603          	ld	a2,96(sp)
    800000f0:	06813683          	ld	a3,104(sp)
    800000f4:	07013703          	ld	a4,112(sp)
    800000f8:	07813783          	ld	a5,120(sp)
    800000fc:	08013803          	ld	a6,128(sp)
    80000100:	08813883          	ld	a7,136(sp)
    80000104:	09013903          	ld	s2,144(sp)
    80000108:	09813983          	ld	s3,152(sp)
    8000010c:	0a013a03          	ld	s4,160(sp)
    80000110:	0a813a83          	ld	s5,168(sp)
    80000114:	0b013b03          	ld	s6,176(sp)
    80000118:	0b813b83          	ld	s7,184(sp)
    8000011c:	0c013c03          	ld	s8,192(sp)
    80000120:	0c813c83          	ld	s9,200(sp)
    80000124:	0d013d03          	ld	s10,208(sp)
    80000128:	0d813d83          	ld	s11,216(sp)
    8000012c:	0e013e03          	ld	t3,224(sp)
    80000130:	0e813e83          	ld	t4,232(sp)
    80000134:	0f013f03          	ld	t5,240(sp)
    80000138:	0f813f83          	ld	t6,248(sp)
    8000013c:	11810113          	addi	sp,sp,280
    80000140:	30200073          	mret
    80000144:	00000013          	nop

0000000080000148 <__cust_trap_handler>:
    80000148:	fe010113          	addi	sp,sp,-32
    8000014c:	00113c23          	sd	ra,24(sp)
    80000150:	00813823          	sd	s0,16(sp)
    80000154:	02010413          	addi	s0,sp,32
    80000158:	00000797          	auipc	a5,0x0
    8000015c:	35878793          	addi	a5,a5,856 # 800004b0 <success_flag>
    80000160:	00100713          	li	a4,1
    80000164:	00e7b023          	sd	a4,0(a5)
    80000168:	020047b7          	lui	a5,0x2004
    8000016c:	fef43423          	sd	a5,-24(s0)
    80000170:	fe843783          	ld	a5,-24(s0)
    80000174:	fff00713          	li	a4,-1
    80000178:	00e7b023          	sd	a4,0(a5) # 2004000 <_start-0x7dffc000>
    8000017c:	00000013          	nop
    80000180:	01813083          	ld	ra,24(sp)
    80000184:	01013403          	ld	s0,16(sp)
    80000188:	02010113          	addi	sp,sp,32
    8000018c:	00008067          	ret

0000000080000190 <main>:
    80000190:	fb010113          	addi	sp,sp,-80
    80000194:	04113423          	sd	ra,72(sp)
    80000198:	04813023          	sd	s0,64(sp)
    8000019c:	05010413          	addi	s0,sp,80
    800001a0:	00000797          	auipc	a5,0x0
    800001a4:	31078793          	addi	a5,a5,784 # 800004b0 <success_flag>
    800001a8:	0007b023          	sd	zero,0(a5)
    800001ac:	00000797          	auipc	a5,0x0
    800001b0:	e6c78793          	addi	a5,a5,-404 # 80000018 <trap>
    800001b4:	30579073          	csrw	mtvec,a5
    800001b8:	08000793          	li	a5,128
    800001bc:	fef43023          	sd	a5,-32(s0)
    800001c0:	fe043783          	ld	a5,-32(s0)
    800001c4:	3047a073          	csrs	mie,a5
    800001c8:	00800793          	li	a5,8
    800001cc:	fcf43c23          	sd	a5,-40(s0)
    800001d0:	fd843783          	ld	a5,-40(s0)
    800001d4:	3007a073          	csrs	mstatus,a5
    800001d8:	0200c7b7          	lui	a5,0x200c
    800001dc:	ff878793          	addi	a5,a5,-8 # 200bff8 <_start-0x7dff4008>
    800001e0:	fcf43823          	sd	a5,-48(s0)
    800001e4:	020047b7          	lui	a5,0x2004
    800001e8:	fcf43423          	sd	a5,-56(s0)
    800001ec:	fd043783          	ld	a5,-48(s0)
    800001f0:	0007b783          	ld	a5,0(a5) # 2004000 <_start-0x7dffc000>
    800001f4:	fcf43023          	sd	a5,-64(s0)
    800001f8:	000f47b7          	lui	a5,0xf4
    800001fc:	24078793          	addi	a5,a5,576 # f4240 <_start-0x7ff0bdc0>
    80000200:	faf43c23          	sd	a5,-72(s0)
    80000204:	fc043703          	ld	a4,-64(s0)
    80000208:	fb843783          	ld	a5,-72(s0)
    8000020c:	00f70733          	add	a4,a4,a5
    80000210:	fc843783          	ld	a5,-56(s0)
    80000214:	00e7b023          	sd	a4,0(a5)
    80000218:	fa043823          	sd	zero,-80(s0)
    8000021c:	0240006f          	j	80000240 <main+0xb0>
    80000220:	00000797          	auipc	a5,0x0
    80000224:	29078793          	addi	a5,a5,656 # 800004b0 <success_flag>
    80000228:	0007b783          	ld	a5,0(a5)
    8000022c:	02079463          	bnez	a5,80000254 <main+0xc4>
    80000230:	10500073          	wfi
    80000234:	fb043783          	ld	a5,-80(s0)
    80000238:	00178793          	addi	a5,a5,1
    8000023c:	faf43823          	sd	a5,-80(s0)
    80000240:	fb043703          	ld	a4,-80(s0)
    80000244:	009897b7          	lui	a5,0x989
    80000248:	67f78793          	addi	a5,a5,1663 # 98967f <_start-0x7f676981>
    8000024c:	fce7fae3          	bgeu	a5,a4,80000220 <main+0x90>
    80000250:	0080006f          	j	80000258 <main+0xc8>
    80000254:	00000013          	nop
    80000258:	00000797          	auipc	a5,0x0
    8000025c:	25878793          	addi	a5,a5,600 # 800004b0 <success_flag>
    80000260:	0007b703          	ld	a4,0(a5)
    80000264:	00100793          	li	a5,1
    80000268:	00f71663          	bne	a4,a5,80000274 <main+0xe4>
    8000026c:	fe042623          	sw	zero,-20(s0)
    80000270:	00c0006f          	j	8000027c <main+0xec>
    80000274:	fff00793          	li	a5,-1
    80000278:	fef42623          	sw	a5,-20(s0)
    8000027c:	fec42783          	lw	a5,-20(s0)
    80000280:	00078513          	mv	a0,a5
    80000284:	00100073          	ebreak
    80000288:	10500073          	wfi
    8000028c:	ffdff06f          	j	80000288 <main+0xf8>
